(dp0
S'chat_data'
p1
ccollections
defaultdict
p2
(c__builtin__
dict
p3
tp4
Rp5
I427649895
(dp6
ssS'conversations'
p7
(dp8
S'my_conversation'
p9
(dp10
(I427649895
I427649895
tp11
I0
sssS'bot_data'
p12
(dp13
sS'user_data'
p14
g2
(g3
tp15
Rp16
I427649895
(dp17
Vnumber of siblings
p18
V45
p19
sVage
p20
V34
p21
sVfavourite colour
p22
Vqweasd
p23
sss.